target datalayout = "e-m:e-p270:32:32-p271:32:32-p272:64:64-i64:64-i128:128-f80:128-n8:16:32:64-S128"
target triple = "x86_64-pc-linux-gnu"

%struct.stbtt__buf = type { ptr, i32, i32 }

; Function Attrs: nounwind uwtable
define void @stbtt__buf_seek(ptr noundef %0, i32 noundef %1) #0 {
  %3 = alloca ptr, align 8
  %4 = alloca i32, align 4
  store ptr %0, ptr %3, align 8, !tbaa !3
  store i32 %1, ptr %4, align 4, !tbaa !14
  %5 = load i32, ptr %4, align 4, !tbaa !14
  %6 = load ptr, ptr %3, align 8, !tbaa !3
  %7 = getelementptr inbounds nuw %struct.stbtt__buf, ptr %6, i32 0, i32 2
  %8 = load i32, ptr %7, align 4, !tbaa !11
  %9 = icmp sgt i32 %5, %8
  br i1 %9, label %13, label %10

10:                                               ; preds = %2
  %11 = load i32, ptr %4, align 4, !tbaa !14
  %12 = icmp slt i32 %11, 0
  br i1 %12, label %13, label %17

13:                                               ; preds = %10, %2
  %14 = load ptr, ptr %3, align 8, !tbaa !3
  %15 = getelementptr inbounds nuw %struct.stbtt__buf, ptr %14, i32 0, i32 2
  %16 = load i32, ptr %15, align 4, !tbaa !11
  br label %19

17:                                               ; preds = %10
  %18 = load i32, ptr %4, align 4, !tbaa !14
  br label %19

19:                                               ; preds = %17, %13
  %20 = phi i32 [ %16, %13 ], [ %18, %17 ]
  %21 = load ptr, ptr %3, align 8, !tbaa !3
  %22 = getelementptr inbounds nuw %struct.stbtt__buf, ptr %21, i32 0, i32 1
  store i32 %20, ptr %22, align 8, !tbaa !7
  ret void
}

; Function Attrs: nounwind uwtable
define zeroext i8 @stbtt__buf_get8(ptr noundef %0) #0 {
  %2 = alloca i8, align 1
  %3 = alloca ptr, align 8
  store ptr %0, ptr %3, align 8, !tbaa !3
  %4 = load ptr, ptr %3, align 8, !tbaa !3
  %5 = getelementptr inbounds nuw %struct.stbtt__buf, ptr %4, i32 0, i32 1
  %6 = load i32, ptr %5, align 8, !tbaa !7
  %7 = load ptr, ptr %3, align 8, !tbaa !3
  %8 = getelementptr inbounds nuw %struct.stbtt__buf, ptr %7, i32 0, i32 2
  %9 = load i32, ptr %8, align 4, !tbaa !11
  %10 = icmp sge i32 %6, %9
  br i1 %10, label %11, label %12

11:                                               ; preds = %1
  store i8 0, ptr %2, align 1
  br label %23

12:                                               ; preds = %1
  %13 = load ptr, ptr %3, align 8, !tbaa !3
  %14 = getelementptr inbounds nuw %struct.stbtt__buf, ptr %13, i32 0, i32 0
  %15 = load ptr, ptr %14, align 8, !tbaa !12
  %16 = load ptr, ptr %3, align 8, !tbaa !3
  %17 = getelementptr inbounds nuw %struct.stbtt__buf, ptr %16, i32 0, i32 1
  %18 = load i32, ptr %17, align 8, !tbaa !7
  %19 = add nsw i32 %18, 1
  store i32 %19, ptr %17, align 8, !tbaa !7
  %20 = sext i32 %18 to i64
  %21 = getelementptr inbounds i8, ptr %15, i64 %20
  %22 = load i8, ptr %21, align 1, !tbaa !13
  store i8 %22, ptr %2, align 1
  br label %23

23:                                               ; preds = %12, %11
  %24 = load i8, ptr %2, align 1
  ret i8 %24
}

; Function Attrs: nounwind uwtable
define void @stbtt__buf_skip(ptr noundef %0, i32 noundef %1) #0 {
  %3 = alloca ptr, align 8
  %4 = alloca i32, align 4
  store ptr %0, ptr %3, align 8, !tbaa !3
  store i32 %1, ptr %4, align 4, !tbaa !14
  %5 = load ptr, ptr %3, align 8, !tbaa !3
  %6 = load ptr, ptr %3, align 8, !tbaa !3
  %7 = getelementptr inbounds nuw %struct.stbtt__buf, ptr %6, i32 0, i32 1
  %8 = load i32, ptr %7, align 8, !tbaa !7
  %9 = load i32, ptr %4, align 4, !tbaa !14
  %10 = add nsw i32 %8, %9
  call void @stbtt__buf_seek(ptr noundef %5, i32 noundef %10)
  ret void
}

; Function Attrs: nounwind uwtable
define zeroext i8 @stbtt__buf_peek8(ptr noundef %0) #0 {
  %2 = alloca i8, align 1
  %3 = alloca ptr, align 8
  store ptr %0, ptr %3, align 8, !tbaa !3
  %4 = load ptr, ptr %3, align 8, !tbaa !3
  %5 = getelementptr inbounds nuw %struct.stbtt__buf, ptr %4, i32 0, i32 1
  %6 = load i32, ptr %5, align 8, !tbaa !7
  %7 = load ptr, ptr %3, align 8, !tbaa !3
  %8 = getelementptr inbounds nuw %struct.stbtt__buf, ptr %7, i32 0, i32 2
  %9 = load i32, ptr %8, align 4, !tbaa !11
  %10 = icmp sge i32 %6, %9
  br i1 %10, label %11, label %12

11:                                               ; preds = %1
  store i8 0, ptr %2, align 1
  br label %22

12:                                               ; preds = %1
  %13 = load ptr, ptr %3, align 8, !tbaa !3
  %14 = getelementptr inbounds nuw %struct.stbtt__buf, ptr %13, i32 0, i32 0
  %15 = load ptr, ptr %14, align 8, !tbaa !12
  %16 = load ptr, ptr %3, align 8, !tbaa !3
  %17 = getelementptr inbounds nuw %struct.stbtt__buf, ptr %16, i32 0, i32 1
  %18 = load i32, ptr %17, align 8, !tbaa !7
  %19 = sext i32 %18 to i64
  %20 = getelementptr inbounds i8, ptr %15, i64 %19
  %21 = load i8, ptr %20, align 1, !tbaa !13
  store i8 %21, ptr %2, align 1
  br label %22

22:                                               ; preds = %12, %11
  %23 = load i8, ptr %2, align 1
  ret i8 %23
}

; Function Attrs: nounwind uwtable
define void @stbtt__cff_skip_operand(ptr noundef %0) #0 {
  %2 = alloca ptr, align 8
  %3 = alloca i32, align 4
  %4 = alloca i32, align 4
  store ptr %0, ptr %2, align 8, !tbaa !3
  call void @llvm.lifetime.start.p0(i64 4, ptr %3) #8
  call void @llvm.lifetime.start.p0(i64 4, ptr %4) #8
  %5 = load ptr, ptr %2, align 8, !tbaa !3
  %6 = call zeroext i8 @stbtt__buf_peek8(ptr noundef %5)
  %7 = zext i8 %6 to i32
  store i32 %7, ptr %4, align 4, !tbaa !14
  %8 = load i32, ptr %4, align 4, !tbaa !14
  %9 = icmp eq i32 %8, 30
  br i1 %9, label %10, label %34

10:                                               ; preds = %1
  %11 = load ptr, ptr %2, align 8, !tbaa !3
  call void @stbtt__buf_skip(ptr noundef %11, i32 noundef 1)
  br label %12

12:                                               ; preds = %32, %10
  %13 = load ptr, ptr %2, align 8, !tbaa !3
  %14 = getelementptr inbounds nuw %struct.stbtt__buf, ptr %13, i32 0, i32 1
  %15 = load i32, ptr %14, align 8, !tbaa !7
  %16 = load ptr, ptr %2, align 8, !tbaa !3
  %17 = getelementptr inbounds nuw %struct.stbtt__buf, ptr %16, i32 0, i32 2
  %18 = load i32, ptr %17, align 4, !tbaa !11
  %19 = icmp slt i32 %15, %18
  br i1 %19, label %20, label %33

20:                                               ; preds = %12
  %21 = load ptr, ptr %2, align 8, !tbaa !3
  %22 = call zeroext i8 @stbtt__buf_get8(ptr noundef %21)
  %23 = zext i8 %22 to i32
  store i32 %23, ptr %3, align 4, !tbaa !14
  %24 = load i32, ptr %3, align 4, !tbaa !14
  %25 = and i32 %24, 15
  %26 = icmp eq i32 %25, 15
  br i1 %26, label %31, label %27

27:                                               ; preds = %20
  %28 = load i32, ptr %3, align 4, !tbaa !14
  %29 = ashr i32 %28, 4
  %30 = icmp eq i32 %29, 15
  br i1 %30, label %31, label %32

31:                                               ; preds = %27, %20
  br label %33

32:                                               ; preds = %27
  br label %12, !llvm.loop !19

33:                                               ; preds = %31, %12
  br label %37

34:                                               ; preds = %1
  %35 = load ptr, ptr %2, align 8, !tbaa !3
  %36 = call i32 @stbtt__cff_int(ptr noundef %35)
  br label %37

37:                                               ; preds = %34, %33
  call void @llvm.lifetime.end.p0(i64 4, ptr %4) #8
  call void @llvm.lifetime.end.p0(i64 4, ptr %3) #8
  ret void
}