; Function Attrs: nofree norecurse nosync nounwind memory(read, argmem: readwrite, inaccessiblemem: none) uwtable
define void @stbtt__cff_skip_operand(ptr noundef captures(none) %0) local_unnamed_addr #3 {
  %2 = getelementptr inbounds nuw i8, ptr %0, i64 8
  %3 = load i32, ptr %2, align 8, !tbaa !3
  %4 = getelementptr inbounds nuw i8, ptr %0, i64 12
  %5 = load i32, ptr %4, align 4, !tbaa !10
  %.not.i = icmp slt i32 %3, %5
  br i1 %.not.i, label %stbtt__buf_peek8.exit, label %stbtt__buf_peek8.exit.thread

stbtt__buf_peek8.exit:                            ; preds = %1
  %6 = load ptr, ptr %0, align 8, !tbaa !11
  %7 = sext i32 %3 to i64
  %8 = getelementptr inbounds i8, ptr %6, i64 %7
  %9 = load i8, ptr %8, align 1, !tbaa !12
  %10 = icmp eq i8 %9, 30
  br i1 %10, label %11, label %stbtt__buf_peek8.exit.thread

11:                                               ; preds = %stbtt__buf_peek8.exit
  %12 = add nsw i32 %3, 1
  %13 = icmp slt i32 %3, -1
  %..i.i = select i1 %13, i32 %5, i32 %12
  store i32 %..i.i, ptr %2, align 8, !tbaa !3
  %14 = sext i32 %..i.i to i64
  %smax = tail call i32 @llvm.smax.i32(i32 %..i.i, i32 %5)
  %wide.trip.count = sext i32 %smax to i64
  br label %15

15:                                               ; preds = %stbtt__buf_get8.exit, %11
  %indvars.iv = phi i64 [ %indvars.iv.next, %stbtt__buf_get8.exit ], [ %14, %11 ]
  %exitcond.not = icmp eq i64 %indvars.iv, %wide.trip.count
  br i1 %exitcond.not, label %.loopexit, label %stbtt__buf_get8.exit

stbtt__buf_get8.exit:                             ; preds = %15
  %indvars.iv.next = add nsw i64 %indvars.iv, 1
  %16 = trunc nsw i64 %indvars.iv.next to i32
  store i32 %16, ptr %2, align 8, !tbaa !3
  %17 = getelementptr inbounds i8, ptr %6, i64 %indvars.iv
  %18 = load i8, ptr %17, align 1, !tbaa !12
  %19 = zext i8 %18 to i32
  %20 = and i32 %19, 15
  %21 = icmp eq i32 %20, 15
  %.mask = and i32 %19, 240
  %22 = icmp eq i32 %.mask, 240
  %or.cond = or i1 %21, %22
  br i1 %or.cond, label %.loopexit, label %15, !llvm.loop !15

stbtt__buf_peek8.exit.thread:                     ; preds = %1, %stbtt__buf_peek8.exit
  %23 = tail call i32 @stbtt__cff_int(ptr noundef nonnull %0)
  br label %.loopexit

.loopexit:                                        ; preds = %15, %stbtt__buf_get8.exit, %stbtt__buf_peek8.exit.thread
  ret void
}